; Function Attrs: mustprogress nounwind uwtable
define hidden void @_ZN12MergeMemNode15iteration_setupEPKS_(ptr noundef nonnull align 8 dereferenceable(52) %0, ptr noundef readonly %1) local_unnamed_addr #1 align 2 {
  %.not = icmp eq ptr %1, null
  br i1 %.not, label %_ZN12MergeMemNode13grow_to_matchEPKS_.exit, label %3

3:                                                ; preds = %2
  %4 = getelementptr inbounds i8, ptr %0, i64 8
  %5 = load ptr, ptr %4, align 8
  %6 = getelementptr inbounds i8, ptr %5, i64 8
  %7 = load ptr, ptr %6, align 8
  %8 = getelementptr inbounds i8, ptr %1, i64 24
  %9 = load i32, ptr %8, align 8
  %10 = getelementptr inbounds i8, ptr %0, i64 24
  %11 = load i32, ptr %10, align 8
  %12 = getelementptr inbounds i8, ptr %1, i64 8
  br label %13

13:                                               ; preds = %15, %3
  %.0.i = phi i32 [ %9, %3 ], [ %14, %15 ]
  %14 = add i32 %.0.i, -1
  %.not.i = icmp ult i32 %14, %11
  br i1 %.not.i, label %_ZN12MergeMemNode13grow_to_matchEPKS_.exit, label %15

15:                                               ; preds = %13
  %16 = load ptr, ptr %12, align 8
  %17 = zext i32 %14 to i64
  %18 = getelementptr inbounds ptr, ptr %16, i64 %17
  %19 = load ptr, ptr %18, align 8
  %.not10.i = icmp eq ptr %19, %7
  br i1 %.not10.i, label %13, label %.preheader.i, !llvm.loop !68

.preheader.i:                                     ; preds = %15
  %20 = icmp ult i32 %11, %.0.i
  br i1 %20, label %.lr.ph.i, label %_ZN12MergeMemNode13grow_to_matchEPKS_.exit

.lr.ph.i:                                         ; preds = %.preheader.i, %.lr.ph.i
  tail call void @_ZN4Node7add_reqEPS_(ptr noundef nonnull align 8 dereferenceable(52) %0, ptr noundef %7) #13
  %21 = load i32, ptr %10, align 8
  %22 = icmp ult i32 %21, %.0.i
  br i1 %22, label %.lr.ph.i, label %_ZN12MergeMemNode13grow_to_matchEPKS_.exit, !llvm.loop !69

_ZN12MergeMemNode13grow_to_matchEPKS_.exit:       ; preds = %13, %.lr.ph.i, %.preheader.i, %2
  %23 = getelementptr inbounds i8, ptr %0, i64 8
  %24 = load ptr, ptr %23, align 8
  %25 = getelementptr inbounds i8, ptr %24, i64 16
  %26 = load ptr, ptr %25, align 8
  %.not12 = icmp eq ptr %26, null
  br i1 %.not12, label %.loopexit, label %27

27:                                               ; preds = %_ZN12MergeMemNode13grow_to_matchEPKS_.exit
  %28 = getelementptr inbounds i8, ptr %26, i64 16
  %29 = load ptr, ptr %28, align 8
  %30 = icmp eq ptr %29, null
  br i1 %30, label %.loopexit, label %31

31:                                               ; preds = %27
  %32 = getelementptr inbounds i8, ptr %0, i64 24
  %33 = load i32, ptr %32, align 8
  %34 = icmp ugt i32 %33, 3
  br i1 %34, label %.lr.ph.preheader, label %.loopexit

.lr.ph.preheader:                                 ; preds = %31
  %wide.trip.count = zext i32 %33 to i64
  br label %.lr.ph

.lr.ph:                                           ; preds = %.lr.ph.preheader, %_ZN4Node7set_reqEjPS_.exit
  %indvars.iv = phi i64 [ 3, %.lr.ph.preheader ], [ %indvars.iv.next, %_ZN4Node7set_reqEjPS_.exit ]
  %35 = load ptr, ptr %23, align 8
  %36 = getelementptr inbounds ptr, ptr %35, i64 %indvars.iv
  %37 = load ptr, ptr %36, align 8
  %38 = icmp eq ptr %37, %26
  br i1 %38, label %39, label %_ZN4Node7set_reqEjPS_.exit

39:                                               ; preds = %.lr.ph
  %40 = getelementptr inbounds i8, ptr %35, i64 8
  %41 = load ptr, ptr %40, align 8
  %42 = getelementptr inbounds i8, ptr %37, i64 16
  %43 = load ptr, ptr %42, align 8
  %44 = icmp eq ptr %43, null
  br i1 %44, label %_ZN4Node7del_outEPS_.exit.i, label %45

45:                                               ; preds = %39
  %46 = getelementptr inbounds i8, ptr %37, i64 32
  %47 = load i32, ptr %46, align 8
  %48 = zext i32 %47 to i64
  %49 = getelementptr inbounds ptr, ptr %43, i64 %48
  br label %50

50:                                               ; preds = %50, %45
  %.0.i.i = phi ptr [ %49, %45 ], [ %51, %50 ]
  %51 = getelementptr inbounds i8, ptr %.0.i.i, i64 -8
  %52 = load ptr, ptr %51, align 8
  %.not.i.i = icmp eq ptr %52, %0
  br i1 %.not.i.i, label %53, label %50, !llvm.loop !12

53:                                               ; preds = %50
  %54 = add i32 %47, -1
  store i32 %54, ptr %46, align 8
  %55 = zext i32 %54 to i64
  %56 = getelementptr inbounds ptr, ptr %43, i64 %55
  %57 = load ptr, ptr %56, align 8
  store ptr %57, ptr %51, align 8
  br label %_ZN4Node7del_outEPS_.exit.i

_ZN4Node7del_outEPS_.exit.i:                      ; preds = %53, %39
  store ptr %41, ptr %36, align 8
  %.not8.i = icmp eq ptr %41, null
  br i1 %.not8.i, label %_ZN4Node7set_reqEjPS_.exit, label %58

58:                                               ; preds = %_ZN4Node7del_outEPS_.exit.i
  %59 = getelementptr inbounds i8, ptr %41, i64 16
  %60 = load ptr, ptr %59, align 8
  %61 = icmp eq ptr %60, null
  br i1 %61, label %_ZN4Node7set_reqEjPS_.exit, label %62

62:                                               ; preds = %58
  %63 = getelementptr inbounds i8, ptr %41, i64 32
  %64 = load i32, ptr %63, align 8
  %65 = getelementptr inbounds i8, ptr %41, i64 36
  %66 = load i32, ptr %65, align 4
  %67 = icmp eq i32 %64, %66
  br i1 %67, label %68, label %69

68:                                               ; preds = %62
  tail call void @_ZN4Node8out_growEj(ptr noundef nonnull align 8 dereferenceable(52) %41, i32 noundef %64) #13
  %.pre.i.i = load ptr, ptr %59, align 8
  %.pre2.i.i = load i32, ptr %63, align 8
  br label %69

69:                                               ; preds = %68, %62
  %70 = phi i32 [ %.pre2.i.i, %68 ], [ %64, %62 ]
  %71 = phi ptr [ %.pre.i.i, %68 ], [ %60, %62 ]
  %72 = add i32 %70, 1
  store i32 %72, ptr %63, align 8
  %73 = zext i32 %70 to i64
  %74 = getelementptr inbounds ptr, ptr %71, i64 %73
  store ptr %0, ptr %74, align 8
  br label %_ZN4Node7set_reqEjPS_.exit

_ZN4Node7set_reqEjPS_.exit:                       ; preds = %69, %58, %_ZN4Node7del_outEPS_.exit.i, %.lr.ph
  %indvars.iv.next = add nuw nsw i64 %indvars.iv, 1
  %exitcond.not = icmp eq i64 %indvars.iv.next, %wide.trip.count
  br i1 %exitcond.not, label %.loopexit, label %.lr.ph, !llvm.loop !65

.loopexit:                                        ; preds = %_ZN4Node7set_reqEjPS_.exit, %31, %27, %_ZN12MergeMemNode13grow_to_matchEPKS_.exit
  ret void
}